; Function Attrs: mustprogress uwtable
define void @_ZNK8QuantLib18FdmSquareRootFwdOp13getCoeffPowerERdS1_S1_m(ptr nocapture noundef nonnull readonly align 8 dereferenceable(80) %this, ptr nocapture noundef nonnull writeonly align 8 dereferenceable(8) %alpha, ptr nocapture noundef nonnull writeonly align 8 dereferenceable(8) %beta, ptr nocapture noundef nonnull writeonly align 8 dereferenceable(8) %gamma, i64 noundef %n) local_unnamed_addr #3 align 2 {
entry:
  %kappa_ = getelementptr inbounds nuw i8, ptr %this, i64 16
  %0 = load double, ptr %kappa_, align 8, !tbaa !24
  %theta_ = getelementptr inbounds nuw i8, ptr %this, i64 24
  %1 = load double, ptr %theta_, align 8, !tbaa !25
  %call = tail call noundef double @_ZNK8QuantLib18FdmSquareRootFwdOp1vEm(ptr noundef nonnull align 8 dereferenceable(80) %this, i64 noundef %n)
  %add = fadd double %1, %call
  %mul = fmul double %0, %add
  %sigma_ = getelementptr inbounds nuw i8, ptr %this, i64 32
  %2 = load double, ptr %sigma_, align 8, !tbaa !26
  %mul3 = fmul double %2, %2
  %call4 = tail call noundef double @_ZNK8QuantLib18FdmSquareRootFwdOp1vEm(ptr noundef nonnull align 8 dereferenceable(80) %this, i64 noundef %n)
  %add.i = add i64 %n, 1
  %call.i = tail call noundef double @_ZNK8QuantLib18FdmSquareRootFwdOp1vEm(ptr noundef nonnull readonly align 8 dereferenceable(80) %this, i64 noundef %add.i)
  %call2.i = tail call noundef double @_ZNK8QuantLib18FdmSquareRootFwdOp1vEm(ptr noundef nonnull readonly align 8 dereferenceable(80) %this, i64 noundef %n)
  %sub.i = fsub double %call.i, %call2.i
  %3 = fneg double %sub.i
  %neg = fmul double %mul, %3
  %4 = tail call double @llvm.fmuladd.f64(double %mul3, double %call4, double %neg)
  %sub.i13 = add i64 %n, -1
  %call.i.i = tail call noundef double @_ZNK8QuantLib18FdmSquareRootFwdOp1vEm(ptr noundef nonnull readonly align 8 dereferenceable(80) %this, i64 noundef %n)
  %call2.i.i = tail call noundef double @_ZNK8QuantLib18FdmSquareRootFwdOp1vEm(ptr noundef nonnull readonly align 8 dereferenceable(80) %this, i64 noundef %sub.i13)
  %sub.i.i = fsub double %call.i.i, %call2.i.i
  %call.i3.i = tail call noundef double @_ZNK8QuantLib18FdmSquareRootFwdOp1vEm(ptr noundef nonnull readonly align 8 dereferenceable(80) %this, i64 noundef %n)
  %call2.i4.i = tail call noundef double @_ZNK8QuantLib18FdmSquareRootFwdOp1vEm(ptr noundef nonnull readonly align 8 dereferenceable(80) %this, i64 noundef %sub.i13)
  %sub.i5.i = fsub double %call.i3.i, %call2.i4.i
  %call.i6.i = tail call noundef double @_ZNK8QuantLib18FdmSquareRootFwdOp1vEm(ptr noundef nonnull readonly align 8 dereferenceable(80) %this, i64 noundef %add.i)
  %call2.i7.i = tail call noundef double @_ZNK8QuantLib18FdmSquareRootFwdOp1vEm(ptr noundef nonnull readonly align 8 dereferenceable(80) %this, i64 noundef %n)
  %sub.i8.i = fsub double %call.i6.i, %call2.i7.i
  %add.i14 = fadd double %sub.i5.i, %sub.i8.i
  %mul.i = fmul double %sub.i.i, %add.i14
  %div = fdiv double %4, %mul.i
  store double %div, ptr %alpha, align 8, !tbaa !36
  %5 = load double, ptr %sigma_, align 8, !tbaa !26
  %fneg = fneg double %5
  %mul11 = fmul double %5, %fneg
  %call12 = tail call noundef double @_ZNK8QuantLib18FdmSquareRootFwdOp1vEm(ptr noundef nonnull align 8 dereferenceable(80) %this, i64 noundef %n)
  %call.i16 = tail call noundef double @_ZNK8QuantLib18FdmSquareRootFwdOp1vEm(ptr noundef nonnull readonly align 8 dereferenceable(80) %this, i64 noundef %add.i)
  %call2.i17 = tail call noundef double @_ZNK8QuantLib18FdmSquareRootFwdOp1vEm(ptr noundef nonnull readonly align 8 dereferenceable(80) %this, i64 noundef %n)
  %sub.i18 = fsub double %call.i16, %call2.i17
  %call.i20 = tail call noundef double @_ZNK8QuantLib18FdmSquareRootFwdOp1vEm(ptr noundef nonnull readonly align 8 dereferenceable(80) %this, i64 noundef %n)
  %call2.i21 = tail call noundef double @_ZNK8QuantLib18FdmSquareRootFwdOp1vEm(ptr noundef nonnull readonly align 8 dereferenceable(80) %this, i64 noundef %sub.i13)
  %sub.i22 = fsub double %call.i20, %call2.i21
  %sub16 = fsub double %sub.i18, %sub.i22
  %mul17 = fmul double %mul, %sub16
  %6 = tail call double @llvm.fmuladd.f64(double %mul11, double %call12, double %mul17)
  %call.i.i24 = tail call noundef double @_ZNK8QuantLib18FdmSquareRootFwdOp1vEm(ptr noundef nonnull readonly align 8 dereferenceable(80) %this, i64 noundef %n)
  %call2.i.i25 = tail call noundef double @_ZNK8QuantLib18FdmSquareRootFwdOp1vEm(ptr noundef nonnull readonly align 8 dereferenceable(80) %this, i64 noundef %sub.i13)
  %sub.i.i26 = fsub double %call.i.i24, %call2.i.i25
  %call.i2.i = tail call noundef double @_ZNK8QuantLib18FdmSquareRootFwdOp1vEm(ptr noundef nonnull readonly align 8 dereferenceable(80) %this, i64 noundef %add.i)
  %call2.i3.i = tail call noundef double @_ZNK8QuantLib18FdmSquareRootFwdOp1vEm(ptr noundef nonnull readonly align 8 dereferenceable(80) %this, i64 noundef %n)
  %sub.i4.i = fsub double %call.i2.i, %call2.i3.i
  %mul.i28 = fmul double %sub.i.i26, %sub.i4.i
  %div19 = fdiv double %6, %mul.i28
  %7 = load double, ptr %kappa_, align 8, !tbaa !24
  %mul21 = fmul double %7, 2.000000e+00
  %mul23 = fmul double %7, %mul21
  %8 = load double, ptr %theta_, align 8, !tbaa !25
  %mul25 = fmul double %8, %mul23
  %9 = load double, ptr %sigma_, align 8, !tbaa !26
  %mul28 = fmul double %9, %9
  %div29 = fdiv double %mul25, %mul28
  %add30 = fadd double %div19, %div29
  store double %add30, ptr %beta, align 8, !tbaa !36
  %10 = load double, ptr %sigma_, align 8, !tbaa !26
  %mul33 = fmul double %10, %10
  %call34 = tail call noundef double @_ZNK8QuantLib18FdmSquareRootFwdOp1vEm(ptr noundef nonnull align 8 dereferenceable(80) %this, i64 noundef %n)
  %call.i30 = tail call noundef double @_ZNK8QuantLib18FdmSquareRootFwdOp1vEm(ptr noundef nonnull readonly align 8 dereferenceable(80) %this, i64 noundef %n)
  %call2.i31 = tail call noundef double @_ZNK8QuantLib18FdmSquareRootFwdOp1vEm(ptr noundef nonnull readonly align 8 dereferenceable(80) %this, i64 noundef %sub.i13)
  %sub.i32 = fsub double %call.i30, %call2.i31
  %mul38 = fmul double %mul, %sub.i32
  %11 = tail call double @llvm.fmuladd.f64(double %mul33, double %call34, double %mul38)
  %call.i.i34 = tail call noundef double @_ZNK8QuantLib18FdmSquareRootFwdOp1vEm(ptr noundef nonnull readonly align 8 dereferenceable(80) %this, i64 noundef %add.i)
  %call2.i.i35 = tail call noundef double @_ZNK8QuantLib18FdmSquareRootFwdOp1vEm(ptr noundef nonnull readonly align 8 dereferenceable(80) %this, i64 noundef %n)
  %sub.i.i36 = fsub double %call.i.i34, %call2.i.i35
  %call.i4.i = tail call noundef double @_ZNK8QuantLib18FdmSquareRootFwdOp1vEm(ptr noundef nonnull readonly align 8 dereferenceable(80) %this, i64 noundef %n)
  %call2.i5.i = tail call noundef double @_ZNK8QuantLib18FdmSquareRootFwdOp1vEm(ptr noundef nonnull readonly align 8 dereferenceable(80) %this, i64 noundef %sub.i13)
  %sub.i6.i = fsub double %call.i4.i, %call2.i5.i
  %call.i8.i = tail call noundef double @_ZNK8QuantLib18FdmSquareRootFwdOp1vEm(ptr noundef nonnull readonly align 8 dereferenceable(80) %this, i64 noundef %add.i)
  %call2.i9.i = tail call noundef double @_ZNK8QuantLib18FdmSquareRootFwdOp1vEm(ptr noundef nonnull readonly align 8 dereferenceable(80) %this, i64 noundef %n)
  %sub.i10.i = fsub double %call.i8.i, %call2.i9.i
  %add.i38 = fadd double %sub.i6.i, %sub.i10.i
  %mul.i39 = fmul double %sub.i.i36, %add.i38
  %div40 = fdiv double %11, %mul.i39
  store double %div40, ptr %gamma, align 8, !tbaa !36
  ret void
}